(lp0
(dp1
S'accuracies_majority'
p2
(lp3
F0.819047619047619
aF0.8523809523809524
aF0.861904761904762
aF0.8380952380952381
aF0.8380952380952381
aF0.8285714285714286
aF0.7571428571428571
aF0.8285714285714286
aF0.8476190476190476
aF0.8714285714285714
asS'accuracies_bayes_shape'
p4
(lp5
F0.45714285714285713
aF0.5238095238095238
aF0.5047619047619047
aF0.4523809523809524
aF0.5142857142857142
aF0.5047619047619047
aF0.4238095238095238
aF0.4857142857142857
aF0.41904761904761906
aF0.49523809523809526
asS'accuracies_knn_rgb'
p6
(lp7
F0.9285714285714286
aF0.9047619047619048
aF0.9333333333333333
aF0.8809523809523809
aF0.9
aF0.8857142857142857
aF0.8571428571428571
aF0.8666666666666667
aF0.8761904761904762
aF0.9047619047619048
asS'accuracies_bayes_rgb'
p8
(lp9
F0.7761904761904762
aF0.7904761904761904
aF0.8142857142857143
aF0.7857142857142857
aF0.8285714285714286
aF0.7952380952380952
aF0.7666666666666667
aF0.8285714285714286
aF0.8
aF0.7904761904761904
asS'accuracies_knn_shape'
p10
(lp11
F0.5952380952380952
aF0.6047619047619047
aF0.638095238095238
aF0.5666666666666667
aF0.5714285714285714
aF0.6571428571428571
aF0.5714285714285714
aF0.6095238095238096
aF0.6
aF0.5428571428571428
asa(dp12
g2
(lp13
F0.861904761904762
aF0.8857142857142857
aF0.8047619047619048
aF0.8666666666666667
aF0.7857142857142857
aF0.8095238095238095
aF0.819047619047619
aF0.8285714285714286
aF0.8238095238095238
aF0.7952380952380952
asg4
(lp14
F0.37142857142857144
aF0.46190476190476193
aF0.47619047619047616
aF0.5190476190476191
aF0.49523809523809526
aF0.44761904761904764
aF0.5142857142857142
aF0.49523809523809526
aF0.5190476190476191
aF0.44761904761904764
asg6
(lp15
F0.8809523809523809
aF0.8952380952380953
aF0.9095238095238095
aF0.8952380952380953
aF0.9047619047619048
aF0.919047619047619
aF0.8904761904761904
aF0.861904761904762
aF0.9047619047619048
aF0.9
asg8
(lp16
F0.8
aF0.8523809523809524
aF0.7857142857142857
aF0.8047619047619048
aF0.7619047619047619
aF0.8
aF0.7761904761904762
aF0.780952380952381
aF0.8
aF0.8047619047619048
asg10
(lp17
F0.6285714285714286
aF0.6142857142857143
aF0.5666666666666667
aF0.6238095238095238
aF0.5666666666666667
aF0.5523809523809524
aF0.5904761904761905
aF0.6190476190476191
aF0.5761904761904761
aF0.6047619047619047
asa(dp18
g2
(lp19
F0.7904761904761904
aF0.861904761904762
aF0.8095238095238095
aF0.8238095238095238
aF0.8666666666666667
aF0.8666666666666667
aF0.8285714285714286
aF0.8095238095238095
aF0.8333333333333334
aF0.8238095238095238
asg4
(lp20
F0.49523809523809526
aF0.5142857142857142
aF0.5047619047619047
aF0.47619047619047616
aF0.3761904761904762
aF0.4714285714285714
aF0.4523809523809524
aF0.4714285714285714
aF0.4857142857142857
aF0.48095238095238096
asg6
(lp21
F0.8904761904761904
aF0.9047619047619048
aF0.8857142857142857
aF0.9095238095238095
aF0.9238095238095239
aF0.9
aF0.919047619047619
aF0.8952380952380953
aF0.8857142857142857
aF0.8714285714285714
asg8
(lp22
F0.7523809523809524
aF0.8285714285714286
aF0.8047619047619048
aF0.819047619047619
aF0.819047619047619
aF0.8285714285714286
aF0.7857142857142857
aF0.780952380952381
aF0.8047619047619048
aF0.7571428571428571
asg10
(lp23
F0.5714285714285714
aF0.6142857142857143
aF0.638095238095238
aF0.6714285714285714
aF0.6476190476190476
aF0.580952380952381
aF0.5714285714285714
aF0.5380952380952381
aF0.6095238095238096
aF0.5952380952380952
asa(dp24
g2
(lp25
F0.8761904761904762
aF0.7857142857142857
aF0.8666666666666667
aF0.8285714285714286
aF0.8571428571428571
aF0.8380952380952381
aF0.8095238095238095
aF0.8523809523809524
aF0.8380952380952381
aF0.8285714285714286
asg4
(lp26
F0.43333333333333335
aF0.43333333333333335
aF0.5095238095238095
aF0.49523809523809526
aF0.44285714285714284
aF0.5190476190476191
aF0.4857142857142857
aF0.47619047619047616
aF0.5142857142857142
aF0.5
asg6
(lp27
F0.919047619047619
aF0.861904761904762
aF0.8952380952380953
aF0.8380952380952381
aF0.8904761904761904
aF0.8761904761904762
aF0.8809523809523809
aF0.8952380952380953
aF0.8666666666666667
aF0.8904761904761904
asg8
(lp28
F0.8
aF0.7857142857142857
aF0.8333333333333334
aF0.819047619047619
aF0.7904761904761904
aF0.7571428571428571
aF0.7857142857142857
aF0.8
aF0.7952380952380952
aF0.7857142857142857
asg10
(lp29
F0.5952380952380952
aF0.5428571428571428
aF0.6238095238095238
aF0.5952380952380952
aF0.638095238095238
aF0.5523809523809524
aF0.6047619047619047
aF0.6142857142857143
aF0.6
aF0.6476190476190476
asa(dp30
g2
(lp31
F0.8476190476190476
aF0.8380952380952381
aF0.8571428571428571
aF0.8238095238095238
aF0.819047619047619
aF0.8809523809523809
aF0.7952380952380952
aF0.8428571428571429
aF0.8380952380952381
aF0.8142857142857143
asg4
(lp32
F0.5142857142857142
aF0.45714285714285713
aF0.5
aF0.4523809523809524
aF0.5142857142857142
aF0.41904761904761906
aF0.49523809523809526
aF0.4380952380952381
aF0.5
aF0.46190476190476193
asg6
(lp33
F0.9047619047619048
aF0.9285714285714286
aF0.9095238095238095
aF0.8571428571428571
aF0.8857142857142857
aF0.9
aF0.8666666666666667
aF0.9047619047619048
aF0.8857142857142857
aF0.8904761904761904
asg8
(lp34
F0.819047619047619
aF0.8047619047619048
aF0.8285714285714286
aF0.7904761904761904
aF0.819047619047619
aF0.8047619047619048
aF0.7857142857142857
aF0.819047619047619
aF0.8285714285714286
aF0.7047619047619048
asg10
(lp35
F0.5523809523809524
aF0.580952380952381
aF0.5714285714285714
aF0.5714285714285714
aF0.5428571428571428
aF0.6142857142857143
aF0.5761904761904761
aF0.6238095238095238
aF0.6238095238095238
aF0.6428571428571429
asa(dp36
g2
(lp37
F0.819047619047619
aF0.861904761904762
aF0.819047619047619
aF0.8285714285714286
aF0.8428571428571429
aF0.8333333333333334
aF0.7666666666666667
aF0.8095238095238095
aF0.8476190476190476
aF0.8761904761904762
asg4
(lp38
F0.5095238095238095
aF0.4380952380952381
aF0.49523809523809526
aF0.4857142857142857
aF0.46190476190476193
aF0.43333333333333335
aF0.5047619047619047
aF0.4714285714285714
aF0.47619047619047616
aF0.5285714285714286
asg6
(lp39
F0.8904761904761904
aF0.8904761904761904
aF0.9
aF0.9
aF0.9095238095238095
aF0.8809523809523809
aF0.8523809523809524
aF0.8857142857142857
aF0.8904761904761904
aF0.9285714285714286
asg8
(lp40
F0.8047619047619048
aF0.7952380952380952
aF0.8142857142857143
aF0.8
aF0.7761904761904762
aF0.8047619047619048
aF0.7333333333333333
aF0.7952380952380952
aF0.8047619047619048
aF0.8142857142857143
asg10
(lp41
F0.6238095238095238
aF0.5952380952380952
aF0.5571428571428572
aF0.580952380952381
aF0.5714285714285714
aF0.5761904761904761
aF0.5333333333333333
aF0.6095238095238096
aF0.6238095238095238
aF0.6428571428571429
asa(dp42
g2
(lp43
F0.8476190476190476
aF0.819047619047619
aF0.8523809523809524
aF0.8238095238095238
aF0.8047619047619048
aF0.8428571428571429
aF0.8428571428571429
aF0.7952380952380952
aF0.8095238095238095
aF0.8523809523809524
asg4
(lp44
F0.49047619047619045
aF0.44761904761904764
aF0.38095238095238093
aF0.4666666666666667
aF0.49523809523809526
aF0.4857142857142857
aF0.5190476190476191
aF0.4714285714285714
aF0.5
aF0.49523809523809526
asg6
(lp45
F0.8809523809523809
aF0.9428571428571428
aF0.8857142857142857
aF0.9095238095238095
aF0.8904761904761904
aF0.8809523809523809
aF0.8666666666666667
aF0.8761904761904762
aF0.9285714285714286
aF0.8857142857142857
asg8
(lp46
F0.7714285714285715
aF0.8333333333333334
aF0.8047619047619048
aF0.8
aF0.7857142857142857
aF0.8095238095238095
aF0.8142857142857143
aF0.7476190476190476
aF0.780952380952381
aF0.8285714285714286
asg10
(lp47
F0.638095238095238
aF0.5904761904761905
aF0.5666666666666667
aF0.5761904761904761
aF0.5904761904761905
aF0.638095238095238
aF0.5761904761904761
aF0.5904761904761905
aF0.5571428571428572
aF0.6047619047619047
asa(dp48
g2
(lp49
F0.8380952380952381
aF0.8476190476190476
aF0.8523809523809524
aF0.8285714285714286
aF0.819047619047619
aF0.8285714285714286
aF0.7904761904761904
aF0.8476190476190476
aF0.8571428571428571
aF0.8333333333333334
asg4
(lp50
F0.4
aF0.46190476190476193
aF0.49047619047619045
aF0.5
aF0.47619047619047616
aF0.49047619047619045
aF0.5
aF0.49047619047619045
aF0.4714285714285714
aF0.48095238095238096
asg6
(lp51
F0.8714285714285714
aF0.8714285714285714
aF0.9047619047619048
aF0.8952380952380953
aF0.9142857142857143
aF0.919047619047619
aF0.8714285714285714
aF0.9142857142857143
aF0.9142857142857143
aF0.8761904761904762
asg8
(lp52
F0.7619047619047619
aF0.7952380952380952
aF0.7952380952380952
aF0.7952380952380952
aF0.8285714285714286
aF0.7666666666666667
aF0.8
aF0.8
aF0.780952380952381
aF0.7761904761904762
asg10
(lp53
F0.6047619047619047
aF0.5761904761904761
aF0.5952380952380952
aF0.5619047619047619
aF0.6285714285714286
aF0.6142857142857143
aF0.5952380952380952
aF0.5619047619047619
aF0.6285714285714286
aF0.6142857142857143
asa(dp54
g2
(lp55
F0.8333333333333334
aF0.8476190476190476
aF0.8428571428571429
aF0.819047619047619
aF0.8523809523809524
aF0.8333333333333334
aF0.8333333333333334
aF0.819047619047619
aF0.8
aF0.8238095238095238
asg4
(lp56
F0.4666666666666667
aF0.5476190476190477
aF0.47619047619047616
aF0.49047619047619045
aF0.4142857142857143
aF0.5047619047619047
aF0.47619047619047616
aF0.47619047619047616
aF0.48095238095238096
aF0.4238095238095238
asg6
(lp57
F0.8809523809523809
aF0.861904761904762
aF0.9
aF0.9047619047619048
aF0.9
aF0.9142857142857143
aF0.8952380952380953
aF0.8809523809523809
aF0.919047619047619
aF0.8761904761904762
asg8
(lp58
F0.7952380952380952
aF0.7857142857142857
aF0.7857142857142857
aF0.7857142857142857
aF0.8142857142857143
aF0.8
aF0.8142857142857143
aF0.7714285714285715
aF0.7952380952380952
aF0.7857142857142857
asg10
(lp59
F0.6238095238095238
aF0.6428571428571429
aF0.580952380952381
aF0.6238095238095238
aF0.5857142857142857
aF0.5571428571428572
aF0.5571428571428572
aF0.6428571428571429
aF0.6333333333333333
aF0.638095238095238
asa(dp60
g2
(lp61
F0.7857142857142857
aF0.7714285714285715
aF0.8904761904761904
aF0.8428571428571429
aF0.8238095238095238
aF0.8285714285714286
aF0.8380952380952381
aF0.8285714285714286
aF0.8428571428571429
aF0.8761904761904762
asg4
(lp62
F0.5
aF0.49047619047619045
aF0.5047619047619047
aF0.44285714285714284
aF0.4380952380952381
aF0.4
aF0.49523809523809526
aF0.4666666666666667
aF0.4857142857142857
aF0.4857142857142857
asg6
(lp63
F0.8761904761904762
aF0.8428571428571429
aF0.8952380952380953
aF0.8857142857142857
aF0.8952380952380953
aF0.9095238095238095
aF0.8809523809523809
aF0.9095238095238095
aF0.919047619047619
aF0.9095238095238095
asg8
(lp64
F0.7523809523809524
aF0.7523809523809524
aF0.819047619047619
aF0.8
aF0.780952380952381
aF0.8142857142857143
aF0.819047619047619
aF0.8238095238095238
aF0.7761904761904762
aF0.8333333333333334
asg10
(lp65
F0.580952380952381
aF0.638095238095238
aF0.5571428571428572
aF0.6285714285714286
aF0.5761904761904761
aF0.6047619047619047
aF0.6142857142857143
aF0.6238095238095238
aF0.6142857142857143
aF0.5761904761904761
asa(dp66
g2
(lp67
F0.8047619047619048
aF0.8523809523809524
aF0.8
aF0.8428571428571429
aF0.8571428571428571
aF0.8476190476190476
aF0.8571428571428571
aF0.7857142857142857
aF0.8095238095238095
aF0.8285714285714286
asg4
(lp68
F0.5380952380952381
aF0.45714285714285713
aF0.3904761904761905
aF0.4714285714285714
aF0.4857142857142857
aF0.4095238095238095
aF0.44285714285714284
aF0.49523809523809526
aF0.5142857142857142
aF0.49047619047619045
asg6
(lp69
F0.8571428571428571
aF0.9285714285714286
aF0.8761904761904762
aF0.9047619047619048
aF0.9047619047619048
aF0.9047619047619048
aF0.9333333333333333
aF0.8571428571428571
aF0.8857142857142857
aF0.9238095238095239
asg8
(lp70
F0.7571428571428571
aF0.8238095238095238
aF0.7761904761904762
aF0.8333333333333334
aF0.8095238095238095
aF0.8047619047619048
aF0.8380952380952381
aF0.7523809523809524
aF0.7523809523809524
aF0.8238095238095238
asg10
(lp71
F0.6333333333333333
aF0.6476190476190476
aF0.5666666666666667
aF0.6
aF0.6238095238095238
aF0.5761904761904761
aF0.6
aF0.5571428571428572
aF0.6
aF0.580952380952381
asa(dp72
g2
(lp73
F0.8238095238095238
aF0.8142857142857143
aF0.8047619047619048
aF0.819047619047619
aF0.861904761904762
aF0.8380952380952381
aF0.8666666666666667
aF0.8428571428571429
aF0.8333333333333334
aF0.8142857142857143
asg4
(lp74
F0.4857142857142857
aF0.4523809523809524
aF0.46190476190476193
aF0.47619047619047616
aF0.4666666666666667
aF0.49523809523809526
aF0.4
aF0.5
aF0.5047619047619047
aF0.5095238095238095
asg6
(lp75
F0.9
aF0.8380952380952381
aF0.8809523809523809
aF0.9047619047619048
aF0.9142857142857143
aF0.9
aF0.9
aF0.8952380952380953
aF0.8904761904761904
aF0.8904761904761904
asg8
(lp76
F0.819047619047619
aF0.7857142857142857
aF0.819047619047619
aF0.7761904761904762
aF0.8047619047619048
aF0.8
aF0.7904761904761904
aF0.7904761904761904
aF0.8238095238095238
aF0.7523809523809524
asg10
(lp77
F0.6476190476190476
aF0.5904761904761905
aF0.5857142857142857
aF0.6333333333333333
aF0.6523809523809524
aF0.6142857142857143
aF0.6142857142857143
aF0.5714285714285714
aF0.6
aF0.5857142857142857
asa(dp78
g2
(lp79
F0.8142857142857143
aF0.8666666666666667
aF0.8428571428571429
aF0.8380952380952381
aF0.8
aF0.8666666666666667
aF0.8
aF0.8571428571428571
aF0.8333333333333334
aF0.8333333333333334
asg4
(lp80
F0.5
aF0.4666666666666667
aF0.5095238095238095
aF0.49047619047619045
aF0.48095238095238096
aF0.4
aF0.47619047619047616
aF0.49523809523809526
aF0.46190476190476193
aF0.4857142857142857
asg6
(lp81
F0.8571428571428571
aF0.9
aF0.8904761904761904
aF0.9047619047619048
aF0.919047619047619
aF0.9
aF0.919047619047619
aF0.9095238095238095
aF0.8809523809523809
aF0.8714285714285714
asg8
(lp82
F0.7857142857142857
aF0.8047619047619048
aF0.8095238095238095
aF0.8142857142857143
aF0.7619047619047619
aF0.780952380952381
aF0.8142857142857143
aF0.7761904761904762
aF0.8238095238095238
aF0.8142857142857143
asg10
(lp83
F0.6428571428571429
aF0.5857142857142857
aF0.6142857142857143
aF0.5714285714285714
aF0.5523809523809524
aF0.6333333333333333
aF0.5761904761904761
aF0.6095238095238096
aF0.5571428571428572
aF0.6476190476190476
asa(dp84
g2
(lp85
F0.8142857142857143
aF0.8380952380952381
aF0.8
aF0.8238095238095238
aF0.8523809523809524
aF0.861904761904762
aF0.8428571428571429
aF0.8523809523809524
aF0.861904761904762
aF0.8
asg4
(lp86
F0.49523809523809526
aF0.49523809523809526
aF0.4238095238095238
aF0.4714285714285714
aF0.44761904761904764
aF0.45714285714285713
aF0.5
aF0.49047619047619045
aF0.5142857142857142
aF0.4714285714285714
asg6
(lp87
F0.9238095238095239
aF0.8857142857142857
aF0.8904761904761904
aF0.8904761904761904
aF0.8809523809523809
aF0.8952380952380953
aF0.9
aF0.9142857142857143
aF0.9
aF0.861904761904762
asg8
(lp88
F0.8238095238095238
aF0.8047619047619048
aF0.7714285714285715
aF0.7904761904761904
aF0.8047619047619048
aF0.8380952380952381
aF0.7857142857142857
aF0.780952380952381
aF0.8095238095238095
aF0.7666666666666667
asg10
(lp89
F0.5857142857142857
aF0.6714285714285714
aF0.5904761904761905
aF0.5857142857142857
aF0.5285714285714286
aF0.6142857142857143
aF0.5904761904761905
aF0.6476190476190476
aF0.5476190476190477
aF0.638095238095238
asa(dp90
g2
(lp91
F0.7904761904761904
aF0.8285714285714286
aF0.8095238095238095
aF0.8809523809523809
aF0.8142857142857143
aF0.8047619047619048
aF0.8285714285714286
aF0.8571428571428571
aF0.8571428571428571
aF0.8428571428571429
asg4
(lp92
F0.4666666666666667
aF0.49523809523809526
aF0.47619047619047616
aF0.40476190476190477
aF0.4714285714285714
aF0.47619047619047616
aF0.5095238095238095
aF0.4857142857142857
aF0.4714285714285714
aF0.5047619047619047
asg6
(lp93
F0.8761904761904762
aF0.9142857142857143
aF0.8904761904761904
aF0.8666666666666667
aF0.8904761904761904
aF0.8904761904761904
aF0.8761904761904762
aF0.919047619047619
aF0.9238095238095239
aF0.9095238095238095
asg8
(lp94
F0.8047619047619048
aF0.7952380952380952
aF0.8095238095238095
aF0.819047619047619
aF0.8095238095238095
aF0.8
aF0.7476190476190476
aF0.8047619047619048
aF0.780952380952381
aF0.780952380952381
asg10
(lp95
F0.5952380952380952
aF0.5380952380952381
aF0.5904761904761905
aF0.6285714285714286
aF0.6142857142857143
aF0.5666666666666667
aF0.5952380952380952
aF0.5857142857142857
aF0.6285714285714286
aF0.5761904761904761
asa(dp96
g2
(lp97
F0.861904761904762
aF0.8666666666666667
aF0.8142857142857143
aF0.8666666666666667
aF0.8380952380952381
aF0.8095238095238095
aF0.8095238095238095
aF0.8142857142857143
aF0.8
aF0.8285714285714286
asg4
(lp98
F0.47619047619047616
aF0.4142857142857143
aF0.45714285714285713
aF0.5238095238095238
aF0.48095238095238096
aF0.4714285714285714
aF0.5333333333333333
aF0.49047619047619045
aF0.44761904761904764
aF0.4857142857142857
asg6
(lp99
F0.9333333333333333
aF0.9047619047619048
aF0.9047619047619048
aF0.8714285714285714
aF0.8857142857142857
aF0.9047619047619048
aF0.8857142857142857
aF0.9
aF0.8904761904761904
aF0.8904761904761904
asg8
(lp100
F0.7904761904761904
aF0.7952380952380952
aF0.7952380952380952
aF0.8
aF0.8333333333333334
aF0.819047619047619
aF0.7333333333333333
aF0.7952380952380952
aF0.7857142857142857
aF0.8142857142857143
asg10
(lp101
F0.6333333333333333
aF0.6333333333333333
aF0.5619047619047619
aF0.6047619047619047
aF0.5952380952380952
aF0.580952380952381
aF0.6333333333333333
aF0.580952380952381
aF0.580952380952381
aF0.5857142857142857
asa(dp102
g2
(lp103
F0.8047619047619048
aF0.8238095238095238
aF0.8523809523809524
aF0.8047619047619048
aF0.861904761904762
aF0.8047619047619048
aF0.8476190476190476
aF0.819047619047619
aF0.8809523809523809
aF0.8095238095238095
asg4
(lp104
F0.4380952380952381
aF0.45714285714285713
aF0.4666666666666667
aF0.48095238095238096
aF0.5190476190476191
aF0.4857142857142857
aF0.5
aF0.44285714285714284
aF0.41904761904761906
aF0.49523809523809526
asg6
(lp105
F0.8904761904761904
aF0.9238095238095239
aF0.9095238095238095
aF0.8809523809523809
aF0.9
aF0.8571428571428571
aF0.9
aF0.9
aF0.8952380952380953
aF0.8571428571428571
asg8
(lp106
F0.8047619047619048
aF0.780952380952381
aF0.8523809523809524
aF0.7619047619047619
aF0.7857142857142857
aF0.7904761904761904
aF0.7523809523809524
aF0.7857142857142857
aF0.8428571428571429
aF0.8095238095238095
asg10
(lp107
F0.5619047619047619
aF0.5571428571428572
aF0.6142857142857143
aF0.6142857142857143
aF0.6095238095238096
aF0.6476190476190476
aF0.6333333333333333
aF0.6523809523809524
aF0.6571428571428571
aF0.5666666666666667
asa(dp108
g2
(lp109
F0.8333333333333334
aF0.8333333333333334
aF0.8428571428571429
aF0.8142857142857143
aF0.8428571428571429
aF0.8571428571428571
aF0.8857142857142857
aF0.8285714285714286
aF0.8142857142857143
aF0.7761904761904762
asg4
(lp110
F0.5
aF0.5238095238095238
aF0.3952380952380952
aF0.44285714285714284
aF0.4857142857142857
aF0.5047619047619047
aF0.46190476190476193
aF0.45714285714285713
aF0.5380952380952381
aF0.4666666666666667
asg6
(lp111
F0.8857142857142857
aF0.8904761904761904
aF0.9047619047619048
aF0.8952380952380953
aF0.9238095238095239
aF0.9238095238095239
aF0.9095238095238095
aF0.9142857142857143
aF0.8523809523809524
aF0.8857142857142857
asg8
(lp112
F0.7761904761904762
aF0.8047619047619048
aF0.8
aF0.7571428571428571
aF0.8142857142857143
aF0.8095238095238095
aF0.8571428571428571
aF0.8285714285714286
aF0.7571428571428571
aF0.7619047619047619
asg10
(lp113
F0.5761904761904761
aF0.6285714285714286
aF0.5476190476190477
aF0.6095238095238096
aF0.6142857142857143
aF0.5904761904761905
aF0.6238095238095238
aF0.6285714285714286
aF0.580952380952381
aF0.5904761904761905
asa(dp114
g2
(lp115
F0.7904761904761904
aF0.8428571428571429
aF0.819047619047619
aF0.8238095238095238
aF0.8523809523809524
aF0.8142857142857143
aF0.8428571428571429
aF0.8380952380952381
aF0.8476190476190476
aF0.819047619047619
asg4
(lp116
F0.48095238095238096
aF0.5047619047619047
aF0.5047619047619047
aF0.5047619047619047
aF0.4142857142857143
aF0.44285714285714284
aF0.4857142857142857
aF0.44285714285714284
aF0.4714285714285714
aF0.4857142857142857
asg6
(lp117
F0.8857142857142857
aF0.8666666666666667
aF0.8904761904761904
aF0.8714285714285714
aF0.919047619047619
aF0.9
aF0.8952380952380953
aF0.8857142857142857
aF0.919047619047619
aF0.8857142857142857
asg8
(lp118
F0.8142857142857143
aF0.7476190476190476
aF0.780952380952381
aF0.7857142857142857
aF0.819047619047619
aF0.819047619047619
aF0.7666666666666667
aF0.780952380952381
aF0.8
aF0.8238095238095238
asg10
(lp119
F0.5523809523809524
aF0.6095238095238096
aF0.5238095238095238
aF0.6285714285714286
aF0.6285714285714286
aF0.6095238095238096
aF0.580952380952381
aF0.5904761904761905
aF0.5952380952380952
aF0.6095238095238096
asa(dp120
g2
(lp121
F0.8428571428571429
aF0.819047619047619
aF0.8285714285714286
aF0.8333333333333334
aF0.8238095238095238
aF0.8571428571428571
aF0.8095238095238095
aF0.8095238095238095
aF0.8095238095238095
aF0.861904761904762
asg4
(lp122
F0.48095238095238096
aF0.49523809523809526
aF0.4714285714285714
aF0.47619047619047616
aF0.49047619047619045
aF0.4380952380952381
aF0.49047619047619045
aF0.4666666666666667
aF0.5
aF0.44761904761904764
asg6
(lp123
F0.8952380952380953
aF0.8809523809523809
aF0.9095238095238095
aF0.8761904761904762
aF0.8476190476190476
aF0.919047619047619
aF0.9285714285714286
aF0.9285714285714286
aF0.8857142857142857
aF0.8809523809523809
asg8
(lp124
F0.8238095238095238
aF0.7857142857142857
aF0.8047619047619048
aF0.7714285714285715
aF0.7285714285714285
aF0.861904761904762
aF0.8142857142857143
aF0.7761904761904762
aF0.8047619047619048
aF0.7904761904761904
asg10
(lp125
F0.6095238095238096
aF0.5571428571428572
aF0.6047619047619047
aF0.5761904761904761
aF0.5904761904761905
aF0.5952380952380952
aF0.580952380952381
aF0.6047619047619047
aF0.6142857142857143
aF0.6333333333333333
asa(dp126
g2
(lp127
F0.8380952380952381
aF0.8476190476190476
aF0.8428571428571429
aF0.8095238095238095
aF0.8476190476190476
aF0.8285714285714286
aF0.8571428571428571
aF0.8523809523809524
aF0.819047619047619
aF0.8238095238095238
asg4
(lp128
F0.4238095238095238
aF0.4666666666666667
aF0.4523809523809524
aF0.49047619047619045
aF0.5047619047619047
aF0.4714285714285714
aF0.49523809523809526
aF0.4857142857142857
aF0.48095238095238096
aF0.4523809523809524
asg6
(lp129
F0.8857142857142857
aF0.8904761904761904
aF0.9047619047619048
aF0.8761904761904762
aF0.9
aF0.9
aF0.9095238095238095
aF0.8904761904761904
aF0.9047619047619048
aF0.919047619047619
asg8
(lp130
F0.7952380952380952
aF0.7619047619047619
aF0.819047619047619
aF0.7761904761904762
aF0.7857142857142857
aF0.7904761904761904
aF0.8047619047619048
aF0.8
aF0.819047619047619
aF0.7714285714285715
asg10
(lp131
F0.6
aF0.5857142857142857
aF0.6
aF0.5523809523809524
aF0.6095238095238096
aF0.5952380952380952
aF0.580952380952381
aF0.5619047619047619
aF0.6142857142857143
aF0.6
asa(dp132
g2
(lp133
F0.819047619047619
aF0.8333333333333334
aF0.861904761904762
aF0.7904761904761904
aF0.8571428571428571
aF0.8380952380952381
aF0.8571428571428571
aF0.8095238095238095
aF0.8285714285714286
aF0.819047619047619
asg4
(lp134
F0.49523809523809526
aF0.5047619047619047
aF0.49523809523809526
aF0.4666666666666667
aF0.4666666666666667
aF0.4666666666666667
aF0.5095238095238095
aF0.44285714285714284
aF0.46190476190476193
aF0.38571428571428573
asg6
(lp135
F0.9
aF0.8761904761904762
aF0.9142857142857143
aF0.8952380952380953
aF0.9142857142857143
aF0.8761904761904762
aF0.9047619047619048
aF0.9047619047619048
aF0.8904761904761904
aF0.8761904761904762
asg8
(lp136
F0.7857142857142857
aF0.8
aF0.8571428571428571
aF0.7904761904761904
aF0.8095238095238095
aF0.7761904761904762
aF0.8047619047619048
aF0.8095238095238095
aF0.780952380952381
aF0.7476190476190476
asg10
(lp137
F0.6238095238095238
aF0.638095238095238
aF0.6285714285714286
aF0.6
aF0.5761904761904761
aF0.5333333333333333
aF0.6
aF0.580952380952381
aF0.6190476190476191
aF0.6285714285714286
asa(dp138
g2
(lp139
F0.8476190476190476
aF0.8666666666666667
aF0.8523809523809524
aF0.8238095238095238
aF0.780952380952381
aF0.819047619047619
aF0.819047619047619
aF0.8714285714285714
aF0.8428571428571429
aF0.8142857142857143
asg4
(lp140
F0.48095238095238096
aF0.4857142857142857
aF0.5047619047619047
aF0.45714285714285713
aF0.4714285714285714
aF0.41904761904761906
aF0.49047619047619045
aF0.5095238095238095
aF0.46190476190476193
aF0.48095238095238096
asg6
(lp141
F0.8952380952380953
aF0.9047619047619048
aF0.9047619047619048
aF0.9
aF0.8904761904761904
aF0.8380952380952381
aF0.8904761904761904
aF0.9333333333333333
aF0.8857142857142857
aF0.8809523809523809
asg8
(lp142
F0.7952380952380952
aF0.8142857142857143
aF0.8238095238095238
aF0.8047619047619048
aF0.7571428571428571
aF0.7428571428571429
aF0.8047619047619048
aF0.819047619047619
aF0.8142857142857143
aF0.7952380952380952
asg10
(lp143
F0.6238095238095238
aF0.638095238095238
aF0.6285714285714286
aF0.5523809523809524
aF0.5476190476190477
aF0.6095238095238096
aF0.6142857142857143
aF0.580952380952381
aF0.5952380952380952
aF0.5952380952380952
asa(dp144
g2
(lp145
F0.8666666666666667
aF0.8047619047619048
aF0.8285714285714286
aF0.8285714285714286
aF0.8333333333333334
aF0.8666666666666667
aF0.8047619047619048
aF0.7666666666666667
aF0.8666666666666667
aF0.8285714285714286
asg4
(lp146
F0.45714285714285713
aF0.47619047619047616
aF0.4714285714285714
aF0.4380952380952381
aF0.5190476190476191
aF0.5333333333333333
aF0.44761904761904764
aF0.4666666666666667
aF0.4857142857142857
aF0.4666666666666667
asg6
(lp147
F0.8809523809523809
aF0.8714285714285714
aF0.8714285714285714
aF0.9238095238095239
aF0.9142857142857143
aF0.8857142857142857
aF0.8952380952380953
aF0.8761904761904762
aF0.9047619047619048
aF0.9047619047619048
asg8
(lp148
F0.8095238095238095
aF0.7952380952380952
aF0.780952380952381
aF0.7523809523809524
aF0.8047619047619048
aF0.7952380952380952
aF0.7904761904761904
aF0.7666666666666667
aF0.7952380952380952
aF0.8571428571428571
asg10
(lp149
F0.6047619047619047
aF0.6095238095238096
aF0.6238095238095238
aF0.5904761904761905
aF0.5571428571428572
aF0.6047619047619047
aF0.6238095238095238
aF0.6095238095238096
aF0.5761904761904761
aF0.6
asa(dp150
g2
(lp151
F0.8238095238095238
aF0.8238095238095238
aF0.8238095238095238
aF0.8285714285714286
aF0.8047619047619048
aF0.8333333333333334
aF0.8476190476190476
aF0.8428571428571429
aF0.8523809523809524
aF0.8428571428571429
asg4
(lp152
F0.4523809523809524
aF0.4666666666666667
aF0.4714285714285714
aF0.49047619047619045
aF0.4714285714285714
aF0.42857142857142855
aF0.4857142857142857
aF0.5333333333333333
aF0.5380952380952381
aF0.4238095238095238
asg6
(lp153
F0.9380952380952381
aF0.9
aF0.8476190476190476
aF0.8809523809523809
aF0.8809523809523809
aF0.9142857142857143
aF0.919047619047619
aF0.9
aF0.8809523809523809
aF0.9
asg8
(lp154
F0.7904761904761904
aF0.7952380952380952
aF0.7666666666666667
aF0.8142857142857143
aF0.7666666666666667
aF0.8047619047619048
aF0.7857142857142857
aF0.7952380952380952
aF0.8095238095238095
aF0.8238095238095238
asg10
(lp155
F0.5428571428571428
aF0.6190476190476191
aF0.6333333333333333
aF0.6190476190476191
aF0.638095238095238
aF0.6095238095238096
aF0.638095238095238
aF0.5761904761904761
aF0.5714285714285714
aF0.5904761904761905
asa(dp156
g2
(lp157
F0.8380952380952381
aF0.861904761904762
aF0.8428571428571429
aF0.8
aF0.8238095238095238
aF0.8238095238095238
aF0.8238095238095238
aF0.819047619047619
aF0.8238095238095238
aF0.8095238095238095
asg4
(lp158
F0.5
aF0.44285714285714284
aF0.4857142857142857
aF0.47619047619047616
aF0.4523809523809524
aF0.3904761904761905
aF0.5428571428571428
aF0.49047619047619045
aF0.4714285714285714
aF0.5142857142857142
asg6
(lp159
F0.8809523809523809
aF0.9095238095238095
aF0.8714285714285714
aF0.9
aF0.919047619047619
aF0.919047619047619
aF0.9047619047619048
aF0.8761904761904762
aF0.9
aF0.8666666666666667
asg8
(lp160
F0.819047619047619
aF0.8428571428571429
aF0.8238095238095238
aF0.8142857142857143
aF0.8047619047619048
aF0.7666666666666667
aF0.780952380952381
aF0.7714285714285715
aF0.7904761904761904
aF0.7571428571428571
asg10
(lp161
F0.580952380952381
aF0.6238095238095238
aF0.6190476190476191
aF0.5761904761904761
aF0.5904761904761905
aF0.6047619047619047
aF0.5476190476190477
aF0.6095238095238096
aF0.6285714285714286
aF0.6
asa(dp162
g2
(lp163
F0.8
aF0.8238095238095238
aF0.8142857142857143
aF0.8285714285714286
aF0.8476190476190476
aF0.819047619047619
aF0.8285714285714286
aF0.8333333333333334
aF0.8666666666666667
aF0.819047619047619
asg4
(lp164
F0.5190476190476191
aF0.44285714285714284
aF0.47619047619047616
aF0.49523809523809526
aF0.4857142857142857
aF0.48095238095238096
aF0.47619047619047616
aF0.48095238095238096
aF0.38095238095238093
aF0.4857142857142857
asg6
(lp165
F0.8904761904761904
aF0.8714285714285714
aF0.8761904761904762
aF0.9285714285714286
aF0.8952380952380953
aF0.9047619047619048
aF0.8952380952380953
aF0.8952380952380953
aF0.9142857142857143
aF0.9142857142857143
asg8
(lp166
F0.7380952380952381
aF0.7952380952380952
aF0.8142857142857143
aF0.8047619047619048
aF0.7904761904761904
aF0.8238095238095238
aF0.8047619047619048
aF0.8238095238095238
aF0.8
aF0.7904761904761904
asg10
(lp167
F0.6047619047619047
aF0.5904761904761905
aF0.6333333333333333
aF0.6428571428571429
aF0.5333333333333333
aF0.6285714285714286
aF0.5761904761904761
aF0.6
aF0.6
aF0.5666666666666667
asa(dp168
g2
(lp169
F0.7952380952380952
aF0.8238095238095238
aF0.8238095238095238
aF0.8476190476190476
aF0.8476190476190476
aF0.8142857142857143
aF0.861904761904762
aF0.8571428571428571
aF0.8333333333333334
aF0.8142857142857143
asg4
(lp170
F0.5
aF0.4666666666666667
aF0.49047619047619045
aF0.5476190476190477
aF0.4666666666666667
aF0.44285714285714284
aF0.5190476190476191
aF0.43333333333333335
aF0.38571428571428573
aF0.49047619047619045
asg6
(lp171
F0.8761904761904762
aF0.9142857142857143
aF0.9142857142857143
aF0.9095238095238095
aF0.8904761904761904
aF0.8857142857142857
aF0.8857142857142857
aF0.8857142857142857
aF0.9095238095238095
aF0.8857142857142857
asg8
(lp172
F0.7285714285714285
aF0.8142857142857143
aF0.8238095238095238
aF0.8285714285714286
aF0.7857142857142857
aF0.7857142857142857
aF0.8095238095238095
aF0.8333333333333334
aF0.7428571428571429
aF0.7761904761904762
asg10
(lp173
F0.580952380952381
aF0.5904761904761905
aF0.6285714285714286
aF0.5666666666666667
aF0.6333333333333333
aF0.5714285714285714
aF0.6238095238095238
aF0.6047619047619047
aF0.5857142857142857
aF0.5714285714285714
asa(dp174
g2
(lp175
F0.8238095238095238
aF0.8476190476190476
aF0.8238095238095238
aF0.819047619047619
aF0.8333333333333334
aF0.8428571428571429
aF0.8
aF0.8285714285714286
aF0.8380952380952381
aF0.8333333333333334
asg4
(lp176
F0.4523809523809524
aF0.5095238095238095
aF0.4857142857142857
aF0.49523809523809526
aF0.47619047619047616
aF0.5142857142857142
aF0.5190476190476191
aF0.38095238095238093
aF0.49047619047619045
aF0.45714285714285713
asg6
(lp177
F0.8952380952380953
aF0.8857142857142857
aF0.9
aF0.8857142857142857
aF0.9
aF0.9095238095238095
aF0.8857142857142857
aF0.9047619047619048
aF0.919047619047619
aF0.8952380952380953
asg8
(lp178
F0.8142857142857143
aF0.8095238095238095
aF0.8333333333333334
aF0.7571428571428571
aF0.8333333333333334
aF0.8
aF0.7666666666666667
aF0.7523809523809524
aF0.8333333333333334
aF0.7952380952380952
asg10
(lp179
F0.5952380952380952
aF0.6047619047619047
aF0.6142857142857143
aF0.5761904761904761
aF0.5714285714285714
aF0.6333333333333333
aF0.5333333333333333
aF0.6190476190476191
aF0.6238095238095238
aF0.6285714285714286
asa(dp180
g2
(lp181
F0.8142857142857143
aF0.8333333333333334
aF0.819047619047619
aF0.8476190476190476
aF0.8476190476190476
aF0.7904761904761904
aF0.8523809523809524
aF0.8761904761904762
aF0.819047619047619
aF0.8476190476190476
asg4
(lp182
F0.48095238095238096
aF0.5238095238095238
aF0.4523809523809524
aF0.5571428571428572
aF0.4
aF0.48095238095238096
aF0.5
aF0.41904761904761906
aF0.46190476190476193
aF0.5
asg6
(lp183
F0.9142857142857143
aF0.9047619047619048
aF0.9095238095238095
aF0.8904761904761904
aF0.9
aF0.8809523809523809
aF0.9142857142857143
aF0.9095238095238095
aF0.861904761904762
aF0.9
asg8
(lp184
F0.7666666666666667
aF0.780952380952381
aF0.7904761904761904
aF0.8238095238095238
aF0.7857142857142857
aF0.7761904761904762
aF0.8
aF0.8238095238095238
aF0.8
aF0.8095238095238095
asg10
(lp185
F0.6523809523809524
aF0.6285714285714286
aF0.5476190476190477
aF0.5666666666666667
aF0.6238095238095238
aF0.580952380952381
aF0.5761904761904761
aF0.6
aF0.6238095238095238
aF0.5619047619047619
asa.