(lp0
(lp1
I1
aF0.5764331210191083
aa(lp2
I3
aF0.5573248407643312
aa(lp3
I5
aF0.5573248407643312
aa(lp4
I7
aF0.5605095541401274
aa(lp5
I9
aF0.5828025477707006
aa(lp6
I11
aF0.5668789808917197
aa(lp7
I13
aF0.5668789808917197
aa(lp8
I15
aF0.5636942675159236
aa(lp9
I17
aF0.554140127388535
aa(lp10
I19
aF0.554140127388535
aa(lp11
I21
aF0.5605095541401274
aa(lp12
I23
aF0.5573248407643312
aa(lp13
I25
aF0.5668789808917197
aa(lp14
I27
aF0.5700636942675159
aa(lp15
I29
aF0.5828025477707006
aa(lp16
I31
aF0.5828025477707006
aa(lp17
I33
aF0.5859872611464968
aa(lp18
I35
aF0.5636942675159236
aa(lp19
I37
aF0.5796178343949044
aa(lp20
I39
aF0.5668789808917197
aa(lp21
I41
aF0.5668789808917197
aa(lp22
I43
aF0.5828025477707006
aa(lp23
I45
aF0.5764331210191083
aa(lp24
I47
aF0.5764331210191083
aa(lp25
I49
aF0.5732484076433121
aa(lp26
I51
aF0.5828025477707006
aa(lp27
I53
aF0.5796178343949044
aa(lp28
I55
aF0.554140127388535
aa(lp29
I57
aF0.554140127388535
aa(lp30
I59
aF0.5509554140127388
aa(lp31
I61
aF0.5382165605095541
aa(lp32
I63
aF0.5445859872611465
aa(lp33
I65
aF0.5573248407643312
aa(lp34
I67
aF0.5414012738853503
aa(lp35
I69
aF0.5414012738853503
aa(lp36
I71
aF0.5509554140127388
aa(lp37
I73
aF0.554140127388535
aa(lp38
I75
aF0.5477707006369427
aa(lp39
I77
aF0.5509554140127388
aa(lp40
I79
aF0.554140127388535
aa(lp41
I81
aF0.554140127388535
aa(lp42
I83
aF0.5477707006369427
aa(lp43
I85
aF0.554140127388535
aa(lp44
I87
aF0.554140127388535
aa(lp45
I89
aF0.5445859872611465
aa(lp46
I91
aF0.535031847133758
aa(lp47
I93
aF0.5382165605095541
aa(lp48
I95
aF0.5477707006369427
aa(lp49
I97
aF0.5573248407643312
aa.