(lp0
(lp1
I1
aF0.7300955414012739
aa(lp2
I3
aF0.7281847133757962
aa(lp3
I5
aF0.728184713375796
aa(lp4
I7
aF0.7307324840764331
aa(lp5
I9
aF0.7192675159235669
aa(lp6
I11
aF0.7213375796178344
aa(lp7
I13
aF0.7128980891719745
aa(lp8
I15
aF0.7082802547770701
aa(lp9
I17
aF0.7073248407643313
aa(lp10
I19
aF0.7109872611464968
aa.